target datalayout = "e-m:e-p270:32:32-p271:32:32-p272:64:64-i64:64-i128:128-f80:128-n8:16:32:64-S128"
target triple = "x86_64-pc-linux-gnu"

%struct._Node = type { %union.anon }
%union.anon = type { %struct.StrNode }
%struct.StrNode = type { %struct.NodeBase, ptr, ptr, i32, i32, [24 x i8] }
%struct.NodeBase = type { i32 }
%struct.ConsAltNode = type { %struct.NodeBase, ptr, ptr }
%struct.QtfrNode = type { %struct.NodeBase, i32, ptr, i32, i32, i32, i32, ptr, ptr, i32 }
%struct.EncloseNode = type { %struct.NodeBase, i32, i32, i32, i32, i32, ptr, i64, i64, i32, i32 }
%struct.AnchorNode = type { %struct.NodeBase, i32, ptr, i32, i32 }
%struct.CallNode = type { %struct.NodeBase, i32, i32, ptr, ptr, ptr, ptr }

; Function Attrs: nounwind sspstrong uwtable
define internal i32 @subexp_inf_recursive_check(ptr noundef %0, ptr noundef %1, i32 noundef %2) #0 {
  %4 = alloca i32, align 4
  %5 = alloca ptr, align 8
  %6 = alloca ptr, align 8
  %7 = alloca i32, align 4
  %8 = alloca i32, align 4
  %9 = alloca i32, align 4
  %10 = alloca ptr, align 8
  %11 = alloca i64, align 8
  %12 = alloca i32, align 4
  %13 = alloca i32, align 4
  %14 = alloca i32, align 4
  %15 = alloca ptr, align 8
  store ptr %0, ptr %5, align 8, !tbaa !66
  store ptr %1, ptr %6, align 8, !tbaa !36
  store i32 %2, ptr %7, align 4, !tbaa !7
  call void @llvm.lifetime.start.p0(i64 4, ptr %8) #11
  call void @llvm.lifetime.start.p0(i64 4, ptr %9) #11
  store i32 0, ptr %9, align 4, !tbaa !7
  %16 = load ptr, ptr %5, align 8, !tbaa !66
  %17 = getelementptr inbounds nuw %struct._Node, ptr %16, i32 0, i32 0
  %18 = getelementptr inbounds nuw %struct.NodeBase, ptr %17, i32 0, i32 0
  %19 = load i32, ptr %18, align 8, !tbaa !38
  store i32 %19, ptr %8, align 4, !tbaa !7
  %20 = load i32, ptr %8, align 4, !tbaa !7
  switch i32 %20, label %181 [
    i32 8, label %21
    i32 9, label %71
    i32 5, label %101
    i32 7, label %120
    i32 10, label %134
    i32 6, label %142
  ]

21:                                               ; preds = %3
  call void @llvm.lifetime.start.p0(i64 8, ptr %10) #11
  call void @llvm.lifetime.start.p0(i64 8, ptr %11) #11
  call void @llvm.lifetime.start.p0(i64 4, ptr %12) #11
  %22 = load ptr, ptr %5, align 8, !tbaa !66
  store ptr %22, ptr %10, align 8, !tbaa !66
  br label %23

23:                                               ; preds = %61, %21
  %24 = load ptr, ptr %10, align 8, !tbaa !66
  %25 = getelementptr inbounds nuw %struct._Node, ptr %24, i32 0, i32 0
  %26 = getelementptr inbounds nuw %struct.ConsAltNode, ptr %25, i32 0, i32 1
  %27 = load ptr, ptr %26, align 8, !tbaa !38
  %28 = load ptr, ptr %6, align 8, !tbaa !36
  %29 = load i32, ptr %7, align 4, !tbaa !7
  %30 = call i32 @subexp_inf_recursive_check(ptr noundef %27, ptr noundef %28, i32 noundef %29)
  store i32 %30, ptr %12, align 4, !tbaa !7
  %31 = load i32, ptr %12, align 4, !tbaa !7
  %32 = icmp slt i32 %31, 0
  br i1 %32, label %36, label %33

33:                                               ; preds = %23
  %34 = load i32, ptr %12, align 4, !tbaa !7
  %35 = icmp eq i32 %34, 2
  br i1 %35, label %36, label %38

36:                                               ; preds = %33, %23
  %37 = load i32, ptr %12, align 4, !tbaa !7
  store i32 %37, ptr %4, align 4
  store i32 1, ptr %13, align 4
  br label %68

38:                                               ; preds = %33
  %39 = load i32, ptr %12, align 4, !tbaa !7
  %40 = load i32, ptr %9, align 4, !tbaa !7
  %41 = or i32 %40, %39
  store i32 %41, ptr %9, align 4, !tbaa !7
  %42 = load i32, ptr %7, align 4, !tbaa !7
  %43 = icmp ne i32 %42, 0
  br i1 %43, label %44, label %60

44:                                               ; preds = %38
  %45 = load ptr, ptr %10, align 8, !tbaa !66
  %46 = getelementptr inbounds nuw %struct._Node, ptr %45, i32 0, i32 0
  %47 = getelementptr inbounds nuw %struct.ConsAltNode, ptr %46, i32 0, i32 1
  %48 = load ptr, ptr %47, align 8, !tbaa !38
  %49 = load ptr, ptr %6, align 8, !tbaa !36
  %50 = call i32 @get_min_match_length(ptr noundef %48, ptr noundef %11, ptr noundef %49)
  store i32 %50, ptr %12, align 4, !tbaa !7
  %51 = load i32, ptr %12, align 4, !tbaa !7
  %52 = icmp ne i32 %51, 0
  br i1 %52, label %53, label %55

53:                                               ; preds = %44
  %54 = load i32, ptr %12, align 4, !tbaa !7
  store i32 %54, ptr %4, align 4
  store i32 1, ptr %13, align 4
  br label %68

55:                                               ; preds = %44
  %56 = load i64, ptr %11, align 8, !tbaa !14
  %57 = icmp ne i64 %56, 0
  br i1 %57, label %58, label %59

58:                                               ; preds = %55
  store i32 0, ptr %7, align 4, !tbaa !7
  br label %59

59:                                               ; preds = %58, %55
  br label %60

60:                                               ; preds = %59, %38
  br label %61

61:                                               ; preds = %60
  %62 = load ptr, ptr %10, align 8, !tbaa !66
  %63 = getelementptr inbounds nuw %struct._Node, ptr %62, i32 0, i32 0
  %64 = getelementptr inbounds nuw %struct.ConsAltNode, ptr %63, i32 0, i32 2
  %65 = load ptr, ptr %64, align 8, !tbaa !38
  store ptr %65, ptr %10, align 8, !tbaa !66
  %66 = icmp ne ptr %65, null
  br i1 %66, label %23, label %67, !llvm.loop !196

67:                                               ; preds = %61
  store i32 0, ptr %13, align 4
  br label %68

68:                                               ; preds = %67, %53, %36
  call void @llvm.lifetime.end.p0(i64 4, ptr %12) #11
  call void @llvm.lifetime.end.p0(i64 8, ptr %11) #11
  call void @llvm.lifetime.end.p0(i64 8, ptr %10) #11
  %69 = load i32, ptr %13, align 4
  switch i32 %69, label %184 [
    i32 0, label %70
  ]

70:                                               ; preds = %68
  br label %182

71:                                               ; preds = %3
  call void @llvm.lifetime.start.p0(i64 4, ptr %14) #11
  store i32 1, ptr %9, align 4, !tbaa !7
  br label %72

72:                                               ; preds = %91, %71
  %73 = load ptr, ptr %5, align 8, !tbaa !66
  %74 = getelementptr inbounds nuw %struct._Node, ptr %73, i32 0, i32 0
  %75 = getelementptr inbounds nuw %struct.ConsAltNode, ptr %74, i32 0, i32 1
  %76 = load ptr, ptr %75, align 8, !tbaa !38
  %77 = load ptr, ptr %6, align 8, !tbaa !36
  %78 = load i32, ptr %7, align 4, !tbaa !7
  %79 = call i32 @subexp_inf_recursive_check(ptr noundef %76, ptr noundef %77, i32 noundef %78)
  store i32 %79, ptr %14, align 4, !tbaa !7
  %80 = load i32, ptr %14, align 4, !tbaa !7
  %81 = icmp slt i32 %80, 0
  br i1 %81, label %85, label %82

82:                                               ; preds = %72
  %83 = load i32, ptr %14, align 4, !tbaa !7
  %84 = icmp eq i32 %83, 2
  br i1 %84, label %85, label %87

85:                                               ; preds = %82, %72
  %86 = load i32, ptr %14, align 4, !tbaa !7
  store i32 %86, ptr %4, align 4
  store i32 1, ptr %13, align 4
  br label %98

87:                                               ; preds = %82
  %88 = load i32, ptr %14, align 4, !tbaa !7
  %89 = load i32, ptr %9, align 4, !tbaa !7
  %90 = and i32 %89, %88
  store i32 %90, ptr %9, align 4, !tbaa !7
  br label %91

91:                                               ; preds = %87
  %92 = load ptr, ptr %5, align 8, !tbaa !66
  %93 = getelementptr inbounds nuw %struct._Node, ptr %92, i32 0, i32 0
  %94 = getelementptr inbounds nuw %struct.ConsAltNode, ptr %93, i32 0, i32 2
  %95 = load ptr, ptr %94, align 8, !tbaa !38
  store ptr %95, ptr %5, align 8, !tbaa !66
  %96 = icmp ne ptr %95, null
  br i1 %96, label %72, label %97, !llvm.loop !197

97:                                               ; preds = %91
  store i32 0, ptr %13, align 4
  br label %98

98:                                               ; preds = %97, %85
  call void @llvm.lifetime.end.p0(i64 4, ptr %14) #11
  %99 = load i32, ptr %13, align 4
  switch i32 %99, label %184 [
    i32 0, label %100
  ]

100:                                              ; preds = %98
  br label %182

101:                                              ; preds = %3
  %102 = load ptr, ptr %5, align 8, !tbaa !66
  %103 = getelementptr inbounds nuw %struct._Node, ptr %102, i32 0, i32 0
  %104 = getelementptr inbounds nuw %struct.QtfrNode, ptr %103, i32 0, i32 2
  %105 = load ptr, ptr %104, align 8, !tbaa !38
  %106 = load ptr, ptr %6, align 8, !tbaa !36
  %107 = load i32, ptr %7, align 4, !tbaa !7
  %108 = call i32 @subexp_inf_recursive_check(ptr noundef %105, ptr noundef %106, i32 noundef %107)
  store i32 %108, ptr %9, align 4, !tbaa !7
  %109 = load i32, ptr %9, align 4, !tbaa !7
  %110 = icmp eq i32 %109, 1
  br i1 %110, label %111, label %119

111:                                              ; preds = %101
  %112 = load ptr, ptr %5, align 8, !tbaa !66
  %113 = getelementptr inbounds nuw %struct._Node, ptr %112, i32 0, i32 0
  %114 = getelementptr inbounds nuw %struct.QtfrNode, ptr %113, i32 0, i32 3
  %115 = load i32, ptr %114, align 8, !tbaa !38
  %116 = icmp eq i32 %115, 0
  br i1 %116, label %117, label %118

117:                                              ; preds = %111
  store i32 0, ptr %9, align 4, !tbaa !7
  br label %118

118:                                              ; preds = %117, %111
  br label %119

119:                                              ; preds = %118, %101
  br label %182

120:                                              ; preds = %3
  call void @llvm.lifetime.start.p0(i64 8, ptr %15) #11
  %121 = load ptr, ptr %5, align 8, !tbaa !66
  %122 = getelementptr inbounds nuw %struct._Node, ptr %121, i32 0, i32 0
  store ptr %122, ptr %15, align 8, !tbaa !36
  %123 = load ptr, ptr %15, align 8, !tbaa !36
  %124 = getelementptr inbounds nuw %struct.AnchorNode, ptr %123, i32 0, i32 1
  %125 = load i32, ptr %124, align 4, !tbaa !106
  switch i32 %125, label %133 [
    i32 1024, label %126
    i32 2048, label %126
    i32 4096, label %126
    i32 8192, label %126
  ]

126:                                              ; preds = %120, %120, %120, %120
  %127 = load ptr, ptr %15, align 8, !tbaa !36
  %128 = getelementptr inbounds nuw %struct.AnchorNode, ptr %127, i32 0, i32 2
  %129 = load ptr, ptr %128, align 8, !tbaa !108
  %130 = load ptr, ptr %6, align 8, !tbaa !36
  %131 = load i32, ptr %7, align 4, !tbaa !7
  %132 = call i32 @subexp_inf_recursive_check(ptr noundef %129, ptr noundef %130, i32 noundef %131)
  store i32 %132, ptr %9, align 4, !tbaa !7
  br label %133

133:                                              ; preds = %120, %126
  call void @llvm.lifetime.end.p0(i64 8, ptr %15) #11
  br label %182

134:                                              ; preds = %3
  %135 = load ptr, ptr %5, align 8, !tbaa !66
  %136 = getelementptr inbounds nuw %struct._Node, ptr %135, i32 0, i32 0
  %137 = getelementptr inbounds nuw %struct.CallNode, ptr %136, i32 0, i32 5
  %138 = load ptr, ptr %137, align 8, !tbaa !38
  %139 = load ptr, ptr %6, align 8, !tbaa !36
  %140 = load i32, ptr %7, align 4, !tbaa !7
  %141 = call i32 @subexp_inf_recursive_check(ptr noundef %138, ptr noundef %139, i32 noundef %140)
  store i32 %141, ptr %9, align 4, !tbaa !7
  br label %182

142:                                              ; preds = %3
  %143 = load ptr, ptr %5, align 8, !tbaa !66
  %144 = getelementptr inbounds nuw %struct._Node, ptr %143, i32 0, i32 0
  %145 = getelementptr inbounds nuw %struct.EncloseNode, ptr %144, i32 0, i32 1
  %146 = load i32, ptr %145, align 4, !tbaa !38
  %147 = and i32 %146, 16
  %148 = icmp ne i32 %147, 0
  br i1 %148, label %149, label %150

149:                                              ; preds = %142
  store i32 0, ptr %4, align 4
  store i32 1, ptr %13, align 4
  br label %184

150:                                              ; preds = %142
  %151 = load ptr, ptr %5, align 8, !tbaa !66
  %152 = getelementptr inbounds nuw %struct._Node, ptr %151, i32 0, i32 0
  %153 = getelementptr inbounds nuw %struct.EncloseNode, ptr %152, i32 0, i32 1
  %154 = load i32, ptr %153, align 4, !tbaa !38
  %155 = and i32 %154, 8
  %156 = icmp ne i32 %155, 0
  br i1 %156, label %157, label %161

157:                                              ; preds = %150
  %158 = load i32, ptr %7, align 4, !tbaa !7
  %159 = icmp eq i32 %158, 0
  %160 = select i1 %159, i32 1, i32 2
  store i32 %160, ptr %4, align 4
  store i32 1, ptr %13, align 4
  br label %184

161:                                              ; preds = %150
  %162 = load ptr, ptr %5, align 8, !tbaa !66
  %163 = getelementptr inbounds nuw %struct._Node, ptr %162, i32 0, i32 0
  %164 = getelementptr inbounds nuw %struct.EncloseNode, ptr %163, i32 0, i32 1
  %165 = load i32, ptr %164, align 4, !tbaa !38
  %166 = or i32 %165, 16
  store i32 %166, ptr %164, align 4, !tbaa !38
  %167 = load ptr, ptr %5, align 8, !tbaa !66
  %168 = getelementptr inbounds nuw %struct._Node, ptr %167, i32 0, i32 0
  %169 = getelementptr inbounds nuw %struct.EncloseNode, ptr %168, i32 0, i32 6
  %170 = load ptr, ptr %169, align 8, !tbaa !38
  %171 = load ptr, ptr %6, align 8, !tbaa !36
  %172 = load i32, ptr %7, align 4, !tbaa !7
  %173 = call i32 @subexp_inf_recursive_check(ptr noundef %170, ptr noundef %171, i32 noundef %172)
  store i32 %173, ptr %9, align 4, !tbaa !7
  %174 = load ptr, ptr %5, align 8, !tbaa !66
  %175 = getelementptr inbounds nuw %struct._Node, ptr %174, i32 0, i32 0
  %176 = getelementptr inbounds nuw %struct.EncloseNode, ptr %175, i32 0, i32 1
  %177 = load i32, ptr %176, align 4, !tbaa !38
  %178 = and i32 %177, -17
  store i32 %178, ptr %176, align 4, !tbaa !38
  br label %179

179:                                              ; preds = %161
  br label %180

180:                                              ; preds = %179
  br label %182

181:                                              ; preds = %3
  br label %182

182:                                              ; preds = %181, %180, %134, %133, %119, %100, %70
  %183 = load i32, ptr %9, align 4, !tbaa !7
  store i32 %183, ptr %4, align 4
  store i32 1, ptr %13, align 4
  br label %184

184:                                              ; preds = %182, %157, %149, %98, %68
  call void @llvm.lifetime.end.p0(i64 4, ptr %9) #11
  call void @llvm.lifetime.end.p0(i64 4, ptr %8) #11
  %185 = load i32, ptr %4, align 4
  ret i32 %185
}