; Function Attrs: nofree nosync nounwind sspstrong memory(readwrite, inaccessiblemem: none) uwtable
define internal fastcc i32 @subexp_inf_recursive_check(ptr noundef captures(none) %0, ptr noundef nonnull %1, i32 noundef range(i32 0, 2) %2) unnamed_addr #13 {
  %4 = alloca i64, align 8
  br label %tailrecurse

tailrecurse:                                      ; preds = %tailrecurse.backedge, %3
  %.tr = phi ptr [ %0, %3 ], [ %.tr.be, %tailrecurse.backedge ]
  %5 = load i32, ptr %.tr, align 8, !tbaa !34
  switch i32 %5, label %common.ret115 [
    i32 8, label %6
    i32 9, label %.preheader
    i32 5, label %33
    i32 7, label %42
    i32 10, label %tailrecurse.backedge
    i32 6, label %49
  ]

6:                                                ; preds = %tailrecurse
  call void @llvm.lifetime.start.p0(i64 8, ptr nonnull %4) #20
  br label %7

7:                                                ; preds = %20, %6
  %.061 = phi i32 [ %2, %6 ], [ %.162, %20 ]
  %.058 = phi i32 [ 0, %6 ], [ %14, %20 ]
  %.057 = phi ptr [ %.tr, %6 ], [ %22, %20 ]
  %8 = getelementptr inbounds nuw i8, ptr %.057, i64 8
  %9 = load ptr, ptr %8, align 8, !tbaa !34
  %10 = call fastcc i32 @subexp_inf_recursive_check(ptr noundef %9, ptr noundef %1, i32 noundef %.061)
  %11 = icmp slt i32 %10, 0
  %12 = icmp eq i32 %10, 2
  %or.cond = or i1 %11, %12
  br i1 %or.cond, label %.thread, label %13

13:                                               ; preds = %7
  %14 = or i32 %10, %.058
  %.not74 = icmp eq i32 %.061, 0
  br i1 %.not74, label %20, label %15

15:                                               ; preds = %13
  %16 = load ptr, ptr %8, align 8, !tbaa !34
  %17 = call fastcc i32 @get_min_match_length(ptr noundef %16, ptr noundef %4, ptr noundef nonnull %1)
  %.not75 = icmp eq i32 %17, 0
  br i1 %.not75, label %18, label %.thread

18:                                               ; preds = %15
  %19 = load i64, ptr %4, align 8, !tbaa !33
  %.not76 = icmp eq i64 %19, 0
  %spec.select = zext i1 %.not76 to i32
  br label %20

20:                                               ; preds = %18, %13
  %.162 = phi i32 [ 0, %13 ], [ %spec.select, %18 ]
  %21 = getelementptr inbounds nuw i8, ptr %.057, i64 16
  %22 = load ptr, ptr %21, align 8, !tbaa !34
  %.not77 = icmp eq ptr %22, null
  br i1 %.not77, label %23, label %7, !llvm.loop !229

.thread:                                          ; preds = %7, %15
  %.0.ph = phi i32 [ %17, %15 ], [ %10, %7 ]
  call void @llvm.lifetime.end.p0(i64 8, ptr nonnull %4) #20
  br label %common.ret115

23:                                               ; preds = %20
  call void @llvm.lifetime.end.p0(i64 8, ptr nonnull %4) #20
  br label %common.ret115

.preheader:                                       ; preds = %tailrecurse, %29
  %.3 = phi i32 [ %30, %29 ], [ 1, %tailrecurse ]
  %.054 = phi ptr [ %32, %29 ], [ %.tr, %tailrecurse ]
  %24 = getelementptr inbounds nuw i8, ptr %.054, i64 8
  %25 = load ptr, ptr %24, align 8, !tbaa !34
  %26 = tail call fastcc i32 @subexp_inf_recursive_check(ptr noundef %25, ptr noundef %1, i32 noundef %2)
  %27 = icmp sgt i32 %26, -1
  %28 = icmp ne i32 %26, 2
  %or.cond4.not = and i1 %27, %28
  br i1 %or.cond4.not, label %29, label %common.ret115

29:                                               ; preds = %.preheader
  %30 = and i32 %26, %.3
  %31 = getelementptr inbounds nuw i8, ptr %.054, i64 16
  %32 = load ptr, ptr %31, align 8, !tbaa !34
  %.not71 = icmp eq ptr %32, null
  br i1 %.not71, label %common.ret115, label %.preheader, !llvm.loop !230

33:                                               ; preds = %tailrecurse
  %34 = getelementptr inbounds nuw i8, ptr %.tr, i64 8
  %35 = load ptr, ptr %34, align 8, !tbaa !34
  %36 = tail call fastcc i32 @subexp_inf_recursive_check(ptr noundef %35, ptr noundef %1, i32 noundef %2)
  %37 = icmp eq i32 %36, 1
  br i1 %37, label %38, label %common.ret115

38:                                               ; preds = %33
  %39 = getelementptr inbounds nuw i8, ptr %.tr, i64 16
  %40 = load i32, ptr %39, align 8, !tbaa !34
  %41 = icmp ne i32 %40, 0
  %spec.select78 = zext i1 %41 to i32
  br label %common.ret115

42:                                               ; preds = %tailrecurse
  %43 = getelementptr inbounds nuw i8, ptr %.tr, i64 4
  %44 = load i32, ptr %43, align 4, !tbaa !138
  %45 = add i32 %44, -1024
  %46 = tail call i32 @llvm.fshl.i32(i32 %45, i32 %45, i32 22)
  %47 = icmp ult i32 %46, 8
  br i1 %47, label %switch.hole_check, label %common.ret115

switch.hole_check:                                ; preds = %42
  %switch.maskindex = trunc nuw i32 %46 to i8
  %switch.shifted = lshr i8 -117, %switch.maskindex
  %switch.lobit = trunc i8 %switch.shifted to i1
  br i1 %switch.lobit, label %tailrecurse.backedge, label %common.ret115

tailrecurse.backedge:                             ; preds = %switch.hole_check, %tailrecurse
  %.sink = phi i64 [ 32, %tailrecurse ], [ 8, %switch.hole_check ]
  %48 = getelementptr inbounds nuw i8, ptr %.tr, i64 %.sink
  %.tr.be = load ptr, ptr %48, align 8, !tbaa !34
  br label %tailrecurse

49:                                               ; preds = %tailrecurse
  %50 = getelementptr inbounds nuw i8, ptr %.tr, i64 4
  %51 = load i32, ptr %50, align 4, !tbaa !34
  %52 = and i32 %51, 16
  %.not = icmp eq i32 %52, 0
  br i1 %.not, label %53, label %common.ret115

53:                                               ; preds = %49
  %54 = and i32 %51, 8
  %.not70 = icmp eq i32 %54, 0
  br i1 %.not70, label %58, label %55

55:                                               ; preds = %53
  %56 = icmp eq i32 %2, 0
  %57 = select i1 %56, i32 1, i32 2
  br label %common.ret115

common.ret115:                                    ; preds = %33, %38, %23, %.thread, %49, %55, %29, %.preheader, %switch.hole_check, %42, %tailrecurse, %58
  %common.ret115.op = phi i32 [ %62, %58 ], [ %57, %55 ], [ 0, %49 ], [ %.0.ph, %.thread ], [ %36, %33 ], [ %14, %23 ], [ %spec.select78, %38 ], [ %30, %29 ], [ %26, %.preheader ], [ 0, %switch.hole_check ], [ 0, %42 ], [ 0, %tailrecurse ]
  ret i32 %common.ret115.op

58:                                               ; preds = %53
  %59 = or disjoint i32 %51, 16
  store i32 %59, ptr %50, align 4, !tbaa !34
  %60 = getelementptr inbounds nuw i8, ptr %.tr, i64 24
  %61 = load ptr, ptr %60, align 8, !tbaa !34
  %62 = tail call fastcc i32 @subexp_inf_recursive_check(ptr noundef %61, ptr noundef %1, i32 noundef %2)
  %63 = load i32, ptr %50, align 4, !tbaa !34
  %64 = and i32 %63, -17
  store i32 %64, ptr %50, align 4, !tbaa !34
  br label %common.ret115
}